(dp0
S'hindustani_singers'
p1
(lp2
S'vocalist'
p3
aS'singer'
p4
asS'hindustani_ragas'
p5
(lp6
S'raga'
p7
aS'raaga'
p8
aS'raag'
p9
aS'rag'
p10
aS'scale'
p11
aVr\u0101ga
p12
asS'hindustani_instrumentalists'
p13
(lp14
S'instrumentalist'
p15
aS'player'
p16
aS'violonist'
p17
asS'hindustani_musicians'
p18
(lp19
cnumpy.core.multiarray
scalar
p20
(cnumpy
dtype
p21
(S'S8'
p22
I0
I1
tp23
Rp24
(I3
S'|'
p25
NNNI8
I1
I0
tp26
bS'vocalist'
p27
tp28
Rp29
ag20
(g21
(S'S6'
p30
I0
I1
tp31
Rp32
(I3
S'|'
p33
NNNI6
I1
I0
tp34
bS'singer'
p35
tp36
Rp37
ag20
(g21
(S'S8'
p38
I0
I1
tp39
Rp40
(I3
S'|'
p41
NNNI8
I1
I0
tp42
bS'composer'
p43
tp44
Rp45
ag20
(g21
(S'S4'
p46
I0
I1
tp47
Rp48
(I3
S'|'
p49
NNNI4
I1
I0
tp50
bS'poet'
p51
tp52
Rp53
ag20
(g21
(S'S15'
p54
I0
I1
tp55
Rp56
(I3
S'|'
p57
NNNI15
I1
I0
tp58
bS'instrumentalist'
p59
tp60
Rp61
ag20
(g21
(S'S6'
p62
I0
I1
tp63
Rp64
(I3
S'|'
p65
NNNI6
I1
I0
tp66
bS'player'
p67
tp68
Rp69
ag20
(g21
(S'S9'
p70
I0
I1
tp71
Rp72
(I3
S'|'
p73
NNNI9
I1
I0
tp74
bS'violonist'
p75
tp76
Rp77
aS'artist'
p78
asS'hindustani_composers'
p79
(lp80
S'composer'
p81
aS'poet'
p82
as.