(dp0
S'carnatic_musicians'
p1
(lp2
cnumpy.core.multiarray
scalar
p3
(cnumpy
dtype
p4
(S'S8'
p5
I0
I1
tp6
Rp7
(I3
S'|'
p8
NNNI8
I1
I0
tp9
bS'vocalist'
p10
tp11
Rp12
ag3
(g4
(S'S6'
p13
I0
I1
tp14
Rp15
(I3
S'|'
p16
NNNI6
I1
I0
tp17
bS'singer'
p18
tp19
Rp20
ag3
(g4
(S'S8'
p21
I0
I1
tp22
Rp23
(I3
S'|'
p24
NNNI8
I1
I0
tp25
bS'composer'
p26
tp27
Rp28
ag3
(g4
(S'S4'
p29
I0
I1
tp30
Rp31
(I3
S'|'
p32
NNNI4
I1
I0
tp33
bS'poet'
p34
tp35
Rp36
ag3
(g4
(S'S15'
p37
I0
I1
tp38
Rp39
(I3
S'|'
p40
NNNI15
I1
I0
tp41
bS'instrumentalist'
p42
tp43
Rp44
ag3
(g4
(S'S6'
p45
I0
I1
tp46
Rp47
(I3
S'|'
p48
NNNI6
I1
I0
tp49
bS'player'
p50
tp51
Rp52
ag3
(g4
(S'S9'
p53
I0
I1
tp54
Rp55
(I3
S'|'
p56
NNNI9
I1
I0
tp57
bS'violonist'
p58
tp59
Rp60
aS'artist'
p61
asS'carnatic_ragas'
p62
(lp63
S'raga'
p64
aS'raaga'
p65
aS'scale'
p66
asS'carnatic_singers'
p67
(lp68
S'vocalist'
p69
aS'singer'
p70
asS'carnatic_compositions'
p71
(lp72
S'composition'
p73
aS'song'
p74
asS'carnatic_instrumentalists'
p75
(lp76
S'instrumentalist'
p77
aS'player'
p78
aS'violonist'
p79
asS'carnatic_composers'
p80
(lp81
S'composer'
p82
aS'poet'
p83
as.